target datalayout = "e-m:e-p270:32:32-p271:32:32-p272:64:64-i64:64-i128:128-f80:128-n8:16:32:64-S128"
target triple = "x86_64-pc-linux-gnu"

%struct.pointf_s = type { double, double }
%union.inside_t = type { %struct.anon.0 }
%struct.anon.0 = type { ptr, ptr, ptr, double, ptr, i64, i64, double, double, double, double }
%struct.Agobj_s = type { %struct.Agtag_s, ptr }
%struct.Agtag_s = type { i32, i64 }
%struct.Agnodeinfo_t = type { %struct.Agrec_s, ptr, ptr, %struct.pointf_s, double, double, %struct.boxf, double, double, double, double, double, ptr, ptr, ptr, i8, i8, i8, i8, i32, i32, i32, ptr, double, i8, i8, ptr, ptr, i8, i64, i8, i8, i8, ptr, ptr, %struct.elist, %struct.elist, %struct.elist, %struct.elist, %struct.elist, ptr, i32, ptr, i32, i32, double, %struct.elist, %struct.elist, %struct.elist, %struct.elist, ptr, i32, i32, i32, [1 x double] }
%struct.Agrec_s = type { ptr, ptr }
%struct.boxf = type { %struct.pointf_s, %struct.pointf_s }
%struct.elist = type { ptr, i64 }
%struct.shape_desc = type { ptr, ptr, ptr, i8 }
%struct.shape_functions = type { ptr, ptr, ptr, ptr, ptr, ptr }

; Function Attrs: nounwind uwtable
define void @shape_clip(ptr noundef %0, ptr noundef %1) #0 {
  %3 = alloca ptr, align 8
  %4 = alloca ptr, align 8
  %5 = alloca double, align 8
  %6 = alloca i8, align 1
  %7 = alloca %struct.pointf_s, align 8
  %8 = alloca i32, align 4
  %9 = alloca %union.inside_t, align 8
  store ptr %0, ptr %3, align 8, !tbaa !30
  store ptr %1, ptr %4, align 8, !tbaa !9
  call void @llvm.lifetime.start.p0(i64 8, ptr %5) #12
  call void @llvm.lifetime.start.p0(i64 1, ptr %6) #12
  call void @llvm.lifetime.start.p0(i64 16, ptr %7) #12
  %10 = load ptr, ptr %3, align 8, !tbaa !30
  %11 = getelementptr inbounds nuw %struct.Agobj_s, ptr %10, i32 0, i32 1
  %12 = load ptr, ptr %11, align 8, !tbaa !32
  %13 = getelementptr inbounds nuw %struct.Agnodeinfo_t, ptr %12, i32 0, i32 1
  %14 = load ptr, ptr %13, align 8, !tbaa !37
  %15 = icmp eq ptr %14, null
  br i1 %15, label %27, label %16

16:                                               ; preds = %2
  %17 = load ptr, ptr %3, align 8, !tbaa !30
  %18 = getelementptr inbounds nuw %struct.Agobj_s, ptr %17, i32 0, i32 1
  %19 = load ptr, ptr %18, align 8, !tbaa !32
  %20 = getelementptr inbounds nuw %struct.Agnodeinfo_t, ptr %19, i32 0, i32 1
  %21 = load ptr, ptr %20, align 8, !tbaa !37
  %22 = getelementptr inbounds nuw %struct.shape_desc, ptr %21, i32 0, i32 1
  %23 = load ptr, ptr %22, align 8, !tbaa !48
  %24 = getelementptr inbounds nuw %struct.shape_functions, ptr %23, i32 0, i32 3
  %25 = load ptr, ptr %24, align 8, !tbaa !52
  %26 = icmp eq ptr %25, null
  br i1 %26, label %27, label %28

27:                                               ; preds = %16, %2
  store i32 1, ptr %8, align 4
  br label %84

28:                                               ; preds = %16
  call void @llvm.lifetime.start.p0(i64 88, ptr %9) #12
  call void @llvm.memset.p0.i64(ptr align 8 %9, i8 0, i64 88, i1 false)
  %29 = getelementptr inbounds nuw %struct.anon.0, ptr %9, i32 0, i32 0
  %30 = load ptr, ptr %3, align 8, !tbaa !30
  store ptr %30, ptr %29, align 8, !tbaa !54
  %31 = load ptr, ptr %3, align 8, !tbaa !30
  %32 = getelementptr inbounds nuw %struct.Agobj_s, ptr %31, i32 0, i32 1
  %33 = load ptr, ptr %32, align 8, !tbaa !32
  %34 = getelementptr inbounds nuw %struct.Agnodeinfo_t, ptr %33, i32 0, i32 9
  %35 = load double, ptr %34, align 8, !tbaa !56
  store double %35, ptr %5, align 8, !tbaa !16
  %36 = load ptr, ptr %4, align 8, !tbaa !9
  %37 = getelementptr inbounds %struct.pointf_s, ptr %36, i64 0
  %38 = getelementptr inbounds nuw %struct.pointf_s, ptr %37, i32 0, i32 0
  %39 = load double, ptr %38, align 8, !tbaa !24
  %40 = load ptr, ptr %3, align 8, !tbaa !30
  %41 = getelementptr inbounds nuw %struct.Agobj_s, ptr %40, i32 0, i32 1
  %42 = load ptr, ptr %41, align 8, !tbaa !32
  %43 = getelementptr inbounds nuw %struct.Agnodeinfo_t, ptr %42, i32 0, i32 3
  %44 = getelementptr inbounds nuw %struct.pointf_s, ptr %43, i32 0, i32 0
  %45 = load double, ptr %44, align 8, !tbaa !57
  %46 = fsub double %39, %45
  %47 = getelementptr inbounds nuw %struct.pointf_s, ptr %7, i32 0, i32 0
  store double %46, ptr %47, align 8, !tbaa !24
  %48 = load ptr, ptr %4, align 8, !tbaa !9
  %49 = getelementptr inbounds %struct.pointf_s, ptr %48, i64 0
  %50 = getelementptr inbounds nuw %struct.pointf_s, ptr %49, i32 0, i32 1
  %51 = load double, ptr %50, align 8, !tbaa !26
  %52 = load ptr, ptr %3, align 8, !tbaa !30
  %53 = getelementptr inbounds nuw %struct.Agobj_s, ptr %52, i32 0, i32 1
  %54 = load ptr, ptr %53, align 8, !tbaa !32
  %55 = getelementptr inbounds nuw %struct.Agnodeinfo_t, ptr %54, i32 0, i32 3
  %56 = getelementptr inbounds nuw %struct.pointf_s, ptr %55, i32 0, i32 1
  %57 = load double, ptr %56, align 8, !tbaa !58
  %58 = fsub double %51, %57
  %59 = getelementptr inbounds nuw %struct.pointf_s, ptr %7, i32 0, i32 1
  store double %58, ptr %59, align 8, !tbaa !26
  %60 = load ptr, ptr %3, align 8, !tbaa !30
  %61 = getelementptr inbounds nuw %struct.Agobj_s, ptr %60, i32 0, i32 1
  %62 = load ptr, ptr %61, align 8, !tbaa !32
  %63 = getelementptr inbounds nuw %struct.Agnodeinfo_t, ptr %62, i32 0, i32 1
  %64 = load ptr, ptr %63, align 8, !tbaa !37
  %65 = getelementptr inbounds nuw %struct.shape_desc, ptr %64, i32 0, i32 1
  %66 = load ptr, ptr %65, align 8, !tbaa !48
  %67 = getelementptr inbounds nuw %struct.shape_functions, ptr %66, i32 0, i32 3
  %68 = load ptr, ptr %67, align 8, !tbaa !52
  %69 = getelementptr inbounds nuw { double, double }, ptr %7, i32 0, i32 0
  %70 = load double, ptr %69, align 8
  %71 = getelementptr inbounds nuw { double, double }, ptr %7, i32 0, i32 1
  %72 = load double, ptr %71, align 8
  %73 = call zeroext i1 %68(ptr noundef %9, double %70, double %72)
  %74 = zext i1 %73 to i8
  store i8 %74, ptr %6, align 1, !tbaa !11
  %75 = load double, ptr %5, align 8, !tbaa !16
  %76 = load ptr, ptr %3, align 8, !tbaa !30
  %77 = getelementptr inbounds nuw %struct.Agobj_s, ptr %76, i32 0, i32 1
  %78 = load ptr, ptr %77, align 8, !tbaa !32
  %79 = getelementptr inbounds nuw %struct.Agnodeinfo_t, ptr %78, i32 0, i32 9
  store double %75, ptr %79, align 8, !tbaa !56
  %80 = load ptr, ptr %3, align 8, !tbaa !30
  %81 = load ptr, ptr %4, align 8, !tbaa !9
  %82 = load i8, ptr %6, align 1, !tbaa !11, !range !13, !noundef !14
  %83 = trunc i8 %82 to i1
  call void @shape_clip0(ptr noundef %9, ptr noundef %80, ptr noundef %81, i1 noundef zeroext %83)
  call void @llvm.lifetime.end.p0(i64 88, ptr %9) #12
  store i32 0, ptr %8, align 4
  br label %84

84:                                               ; preds = %28, %27
  call void @llvm.lifetime.end.p0(i64 16, ptr %7) #12
  call void @llvm.lifetime.end.p0(i64 1, ptr %6) #12
  call void @llvm.lifetime.end.p0(i64 8, ptr %5) #12
  %85 = load i32, ptr %8, align 4
  switch i32 %85, label %87 [
    i32 0, label %86
    i32 1, label %86
  ]

86:                                               ; preds = %84, %84
  ret void

87:                                               ; preds = %84
  unreachable
}