; Function Attrs: nounwind uwtable
define void @shape_clip(ptr noundef %0, ptr noundef captures(none) %1) local_unnamed_addr #0 {
  %3 = alloca %union.inside_t, align 8
  %4 = getelementptr inbounds nuw i8, ptr %0, i64 16
  %5 = load ptr, ptr %4, align 8, !tbaa !9
  %6 = getelementptr inbounds nuw i8, ptr %5, i64 16
  %7 = load ptr, ptr %6, align 8, !tbaa !16
  %8 = icmp eq ptr %7, null
  br i1 %8, label %31, label %9

9:                                                ; preds = %2
  %10 = getelementptr inbounds nuw i8, ptr %7, i64 8
  %11 = load ptr, ptr %10, align 8, !tbaa !31
  %12 = getelementptr inbounds nuw i8, ptr %11, i64 24
  %13 = load ptr, ptr %12, align 8, !tbaa !35
  %14 = icmp eq ptr %13, null
  br i1 %14, label %31, label %15

15:                                               ; preds = %9
  call void @llvm.lifetime.start.p0(i64 88, ptr nonnull %3) #17
  %16 = getelementptr inbounds nuw i8, ptr %3, i64 8
  call void @llvm.memset.p0.i64(ptr noundef nonnull align 8 dereferenceable(88) %16, i8 0, i64 80, i1 false)
  store ptr %0, ptr %3, align 8, !tbaa !37
  %17 = getelementptr inbounds nuw i8, ptr %5, i64 112
  %18 = load double, ptr %17, align 8, !tbaa !39
  %19 = load double, ptr %1, align 8, !tbaa !40
  %20 = getelementptr inbounds nuw i8, ptr %5, i64 32
  %21 = load double, ptr %20, align 8, !tbaa !41
  %22 = fsub double %19, %21
  %23 = getelementptr inbounds nuw i8, ptr %1, i64 8
  %24 = load double, ptr %23, align 8, !tbaa !42
  %25 = getelementptr inbounds nuw i8, ptr %5, i64 40
  %26 = load double, ptr %25, align 8, !tbaa !43
  %27 = fsub double %24, %26
  %28 = call zeroext i1 %13(ptr noundef nonnull %3, double %22, double %27) #17
  %29 = load ptr, ptr %4, align 8, !tbaa !9
  %30 = getelementptr inbounds nuw i8, ptr %29, i64 112
  store double %18, ptr %30, align 8, !tbaa !39
  call fastcc void @shape_clip0(ptr noundef %3, ptr noundef nonnull %0, ptr noundef nonnull %1, i1 noundef zeroext %28)
  call void @llvm.lifetime.end.p0(i64 88, ptr nonnull %3) #17
  br label %31

31:                                               ; preds = %2, %9, %15
  ret void
}